Certificate:
    Data:
        Version: 3 (0x2)
        Serial Number: 17262244389647972467 (0xef8fcfd026f27873)
    Signature Algorithm: sha256WithRSAEncryption
        Issuer: CN=QUIC Server Root CA
        Validity
            Not Before: May 13 14:05:12 2016 GMT
            Not After : May 16 14:05:12 2016 GMT
        Subject: CN=QUIC Server Root CA
        Subject Public Key Info:
            Public Key Algorithm: rsaEncryption
                Public-Key: (2048 bit)
                Modulus:
                    00:c2:3b:c7:b7:9c:76:cd:51:e5:03:91:41:1a:46:
                    8a:75:b0:19:68:b5:e3:f4:4c:0b:17:78:70:1d:a8:
                    20:6e:50:1e:7f:d7:c9:2c:ec:f8:df:bc:86:03:ff:
                    3a:8d:a7:18:18:33:44:fd:7a:54:5d:db:a0:68:41:
                    1f:ee:24:63:34:a7:d0:10:0b:ff:e0:32:29:19:64:
                    10:4b:ee:7b:7f:54:ea:35:8a:b6:db:70:76:da:ef:
                    f9:4a:81:6f:bd:d5:76:cc:25:e8:2f:0f:46:f5:a8:
                    0f:71:c0:3d:75:82:b4:93:59:df:7b:dd:9f:25:4e:
                    54:3a:a7:57:49:c6:bc:67:04:6c:06:f8:d0:e0:b1:
                    f9:89:6e:ee:da:f8:86:e1:e7:3a:42:25:8a:ff:cb:
                    5f:9c:4b:94:4c:33:b1:fb:b7:f1:d3:0a:db:5b:a4:
                    8d:e7:03:72:8e:19:a0:e7:0c:a8:21:e3:df:35:57:
                    a1:45:9b:52:ce:ae:16:5d:a2:74:ec:82:f3:fe:e1:
                    69:5e:30:b4:82:5e:7d:33:3b:45:e7:49:dc:af:5a:
                    0d:7f:04:bd:20:66:0d:15:0f:4b:13:11:49:b5:ec:
                    bf:47:88:b4:cc:77:ba:9c:26:f5:21:eb:be:5f:c0:
                    7b:ea:bf:eb:4e:90:c2:97:01:f3:1d:68:47:91:2e:
                    f4:85
                Exponent: 65537 (0x10001)
        X509v3 extensions:
            X509v3 Basic Constraints: critical
                CA:TRUE
            X509v3 Subject Key Identifier: 
                5D:28:F8:EC:78:34:61:A1:69:D3:D6:00:ED:67:C6:A5:5A:C2:B9:72
            X509v3 Key Usage: critical
                Certificate Sign, CRL Sign
    Signature Algorithm: sha256WithRSAEncryption
         49:07:a3:0c:81:5c:8e:f8:4c:c4:92:76:00:4c:45:4b:8e:56:
         b0:0b:d1:42:98:55:8a:10:07:f2:7f:ae:8e:71:53:b4:a1:23:
         bd:a8:a4:1d:a2:be:fa:ff:51:c2:9d:dd:4f:9d:c7:df:14:eb:
         cc:56:fb:6e:42:10:b7:b2:04:50:59:0c:64:12:55:23:d1:e6:
         d5:d9:0d:8a:f4:c7:a2:7c:f8:12:ab:c5:17:9b:b0:79:6f:34:
         ce:c5:9c:d9:fe:86:31:26:a1:b4:d9:af:8c:ab:e1:17:c8:9d:
         13:15:26:28:95:b4:eb:d7:41:bb:30:e2:b9:ad:77:e2:e9:46:
         1f:4d:d3:f2:a0:a3:d8:e0:1a:b3:2f:f5:34:43:0f:c0:69:6e:
         dc:35:e5:09:81:69:64:58:a7:ae:bb:01:6f:8b:a7:ca:d2:41:
         cc:ae:0d:ad:9b:ca:5f:4b:87:ca:af:c7:96:ca:73:0d:1c:93:
         f0:29:88:0d:93:b4:17:da:27:6a:f3:88:1b:d2:da:f1:41:06:
         99:4e:5d:0b:63:33:05:bc:45:8e:07:25:69:70:78:48:c0:c4:
         c6:54:65:ba:0a:e2:5b:eb:47:38:dc:b7:e2:4a:75:7f:39:05:
         c9:bf:39:a5:67:3d:47:7e:4e:96:f0:6f:71:70:d2:de:63:24:
         b4:23:73:71
-----BEGIN CERTIFICATE-----
MIIDATCCAemgAwIBAgIJAO+Pz9Am8nhzMA0GCSqGSIb3DQEBCwUAMB4xHDAaBgNV
BAMME1FVSUMgU2VydmVyIFJvb3QgQ0EwHhcNMTYwNTEzMTQwNTEyWhcNMTYwNTE2
MTQwNTEyWjAeMRwwGgYDVQQDDBNRVUlDIFNlcnZlciBSb290IENBMIIBIjANBgkq
hkiG9w0BAQEFAAOCAQ8AMIIBCgKCAQEAwjvHt5x2zVHlA5FBGkaKdbAZaLXj9EwL
F3hwHaggblAef9fJLOz437yGA/86jacYGDNE/XpUXdugaEEf7iRjNKfQEAv/4DIp
GWQQS+57f1TqNYq223B22u/5SoFvvdV2zCXoLw9G9agPccA9dYK0k1nfe92fJU5U
OqdXSca8ZwRsBvjQ4LH5iW7u2viG4ec6QiWK/8tfnEuUTDOx+7fx0wrbW6SN5wNy
jhmg5wyoIePfNVehRZtSzq4WXaJ07ILz/uFpXjC0gl59MztF50ncr1oNfwS9IGYN
FQ9LExFJtey/R4i0zHe6nCb1Ieu+X8B76r/rTpDClwHzHWhHkS70hQIDAQABo0Iw
QDAPBgNVHRMBAf8EBTADAQH/MB0GA1UdDgQWBBRdKPjseDRhoWnT1gDtZ8alWsK5
cjAOBgNVHQ8BAf8EBAMCAQYwDQYJKoZIhvcNAQELBQADggEBAEkHowyBXI74TMSS
dgBMRUuOVrAL0UKYVYoQB/J/ro5xU7ShI72opB2ivvr/UcKd3U+dx98U68xW+25C
ELeyBFBZDGQSVSPR5tXZDYr0x6J8+BKrxRebsHlvNM7FnNn+hjEmobTZr4yr4RfI
nRMVJiiVtOvXQbsw4rmtd+LpRh9N0/Kgo9jgGrMv9TRDD8Bpbtw15QmBaWRYp667
AW+Lp8rSQcyuDa2byl9Lh8qvx5bKcw0ck/ApiA2TtBfaJ2rziBvS2vFBBplOXQtj
MwW8RY4HJWlweEjAxMZUZboK4lvrRzjct+JKdX85Bcm/OaVnPUd+Tpbwb3Fw0t5j
JLQjc3E=
-----END CERTIFICATE-----
