Certificate:
    Data:
        Version: 3 (0x2)
        Serial Number: 1 (0x1)
    Signature Algorithm: sha256WithRSAEncryption
        Issuer: CN=QUIC Server Root CA
        Validity
            Not Before: May 13 14:05:13 2016 GMT
            Not After : May 16 14:05:13 2016 GMT
        Subject: C=US, ST=California, L=Mountain View, O=QUIC Server, CN=127.0.0.1
        Subject Public Key Info:
            Public Key Algorithm: rsaEncryption
                Public-Key: (2048 bit)
                Modulus:
                    00:c2:13:68:bf:8f:65:d8:ed:e5:af:a0:5a:c1:c5:
                    1b:39:ae:1b:b2:e9:92:fd:47:f9:1f:45:12:c9:89:
                    f7:b8:71:5e:53:1e:fb:8e:65:6f:6a:b5:6e:8c:cb:
                    db:05:da:9b:65:15:fe:f5:1e:51:56:76:24:a5:02:
                    af:33:38:e6:c2:a8:7c:6d:13:3d:2e:92:00:2d:07:
                    ab:77:10:52:a3:0b:31:8d:63:d8:52:8a:a2:e8:ec:
                    af:f7:44:00:2f:2f:74:46:0f:a1:fe:d0:70:83:c9:
                    67:f9:12:0d:47:84:e8:33:37:b3:69:bc:fe:56:56:
                    8c:dc:1a:ec:49:a0:39:1a:cd:59:ff:46:d1:e1:40:
                    e5:4c:a2:93:4f:52:5d:65:58:45:ac:d9:54:8d:3f:
                    3e:b5:60:9d:53:41:ff:db:e4:17:32:73:59:6f:aa:
                    1c:68:e7:7b:a4:43:eb:bc:c4:c9:ba:a3:d1:cf:b9:
                    74:b5:d0:b3:bc:e8:eb:25:5d:ed:64:a8:a8:b3:1c:
                    e7:f3:44:14:8e:9d:f3:47:c7:97:87:f8:e2:1e:fc:
                    2e:33:4e:5c:d1:6e:63:b3:61:e4:f5:5f:df:7d:97:
                    5b:34:56:35:0d:3a:5c:02:48:e6:15:00:19:7b:73:
                    33:e1:b1:ab:60:e2:3f:28:61:a6:53:f7:77:e9:b2:
                    d8:1d
                Exponent: 65537 (0x10001)
        X509v3 extensions:
            X509v3 Basic Constraints: critical
                CA:FALSE
            X509v3 Subject Key Identifier: 
                AF:30:10:46:53:D8:60:F6:1C:AE:C3:25:16:F8:33:FF:31:8A:D1:84
            X509v3 Authority Key Identifier: 
                keyid:5D:28:F8:EC:78:34:61:A1:69:D3:D6:00:ED:67:C6:A5:5A:C2:B9:72

            X509v3 Extended Key Usage: 
                TLS Web Server Authentication, TLS Web Client Authentication
            X509v3 Subject Alternative Name: 
                DNS:www.example.org, DNS:mail.example.org, DNS:mail.example.com, IP Address:127.0.0.1
    Signature Algorithm: sha256WithRSAEncryption
         24:6a:01:97:4c:be:2d:63:17:c9:7c:89:b1:70:44:a2:c1:d2:
         f2:aa:b9:e2:8e:02:ce:39:97:ad:a9:44:53:62:c5:99:3c:47:
         25:c1:2c:ad:df:c0:1b:cf:d9:d3:55:68:e2:15:a5:33:97:d4:
         b9:82:24:7d:6b:44:92:ee:d9:aa:92:af:10:cb:f8:2d:49:1e:
         3d:9f:cd:0e:42:0b:12:17:ea:46:46:5c:fb:10:2f:be:84:f6:
         46:de:10:71:86:07:78:40:d8:89:71:f3:21:30:f1:4c:ee:c4:
         82:15:2f:cd:cb:4a:ae:f9:ad:e2:d9:ff:b0:a6:9d:9a:93:69:
         a4:e0:15:88:a0:09:b4:c5:ec:5d:c7:cb:84:a7:45:a5:5e:ac:
         a0:da:b0:60:7b:70:27:eb:3e:ac:1a:0c:c1:64:df:41:14:e5:
         ed:97:a1:ae:f0:8f:07:64:43:89:95:1b:d7:8c:7d:14:b7:1b:
         14:f3:e7:2d:72:1b:ad:c3:78:dc:39:f5:c9:0a:8d:2d:71:70:
         ac:47:07:eb:71:4d:6d:78:89:c9:44:6e:87:f2:d2:15:1e:6c:
         84:3d:cb:b7:d3:db:83:1e:80:ed:e0:0d:e7:86:26:99:27:4d:
         5d:6b:f5:2e:92:dd:7e:f5:16:fe:e3:7a:10:35:df:67:54:f2:
         32:77:6e:c7
-----BEGIN CERTIFICATE-----
MIIDtDCCApygAwIBAgIBATANBgkqhkiG9w0BAQsFADAeMRwwGgYDVQQDDBNRVUlD
IFNlcnZlciBSb290IENBMB4XDTE2MDUxMzE0MDUxM1oXDTE2MDUxNjE0MDUxM1ow
ZDELMAkGA1UEBhMCVVMxEzARBgNVBAgMCkNhbGlmb3JuaWExFjAUBgNVBAcMDU1v
dW50YWluIFZpZXcxFDASBgNVBAoMC1FVSUMgU2VydmVyMRIwEAYDVQQDDAkxMjcu
MC4wLjEwggEiMA0GCSqGSIb3DQEBAQUAA4IBDwAwggEKAoIBAQDCE2i/j2XY7eWv
oFrBxRs5rhuy6ZL9R/kfRRLJife4cV5THvuOZW9qtW6My9sF2ptlFf71HlFWdiSl
Aq8zOObCqHxtEz0ukgAtB6t3EFKjCzGNY9hSiqLo7K/3RAAvL3RGD6H+0HCDyWf5
Eg1HhOgzN7NpvP5WVozcGuxJoDkazVn/RtHhQOVMopNPUl1lWEWs2VSNPz61YJ1T
Qf/b5Bcyc1lvqhxo53ukQ+u8xMm6o9HPuXS10LO86OslXe1kqKizHOfzRBSOnfNH
x5eH+OIe/C4zTlzRbmOzYeT1X999l1s0VjUNOlwCSOYVABl7czPhsatg4j8oYaZT
93fpstgdAgMBAAGjgbYwgbMwDAYDVR0TAQH/BAIwADAdBgNVHQ4EFgQUrzAQRlPY
YPYcrsMlFvgz/zGK0YQwHwYDVR0jBBgwFoAUXSj47Hg0YaFp09YA7WfGpVrCuXIw
HQYDVR0lBBYwFAYIKwYBBQUHAwEGCCsGAQUFBwMCMEQGA1UdEQQ9MDuCD3d3dy5l
eGFtcGxlLm9yZ4IQbWFpbC5leGFtcGxlLm9yZ4IQbWFpbC5leGFtcGxlLmNvbYcE
fwAAATANBgkqhkiG9w0BAQsFAAOCAQEAJGoBl0y+LWMXyXyJsXBEosHS8qq54o4C
zjmXralEU2LFmTxHJcEsrd/AG8/Z01Vo4hWlM5fUuYIkfWtEku7ZqpKvEMv4LUke
PZ/NDkILEhfqRkZc+xAvvoT2Rt4QcYYHeEDYiXHzITDxTO7EghUvzctKrvmt4tn/
sKadmpNppOAViKAJtMXsXcfLhKdFpV6soNqwYHtwJ+s+rBoMwWTfQRTl7ZehrvCP
B2RDiZUb14x9FLcbFPPnLXIbrcN43Dn1yQqNLXFwrEcH63FNbXiJyURuh/LSFR5s
hD3Lt9Pbgx6A7eAN54YmmSdNXWv1LpLdfvUW/uN6EDXfZ1TyMnduxw==
-----END CERTIFICATE-----
